; Function Attrs: mustprogress nofree norecurse nosync nounwind memory(argmem: readwrite) uwtable
define internal noundef range(i32 0, -2147483648) i32 @_ZL16uprv_swapArray64PK12UDataSwapperPKviPvP10UErrorCode(ptr noundef readnone %0, ptr noundef readonly %1, i32 noundef %2, ptr noundef writeonly %3, ptr noundef %4) #10 {
  %6 = icmp eq ptr %4, null
  br i1 %6, label %.loopexit, label %7

7:                                                ; preds = %5
  %8 = load i32, ptr %4, align 4, !tbaa !9
  %9 = icmp slt i32 %8, 1
  br i1 %9, label %10, label %.loopexit

10:                                               ; preds = %7
  %11 = icmp eq ptr %0, null
  %12 = icmp eq ptr %1, null
  %or.cond = or i1 %11, %12
  %13 = icmp slt i32 %2, 0
  %or.cond3 = or i1 %or.cond, %13
  br i1 %or.cond3, label %18, label %14

14:                                               ; preds = %10
  %15 = and i32 %2, 7
  %16 = icmp ne i32 %15, 0
  %17 = icmp eq ptr %3, null
  %or.cond5 = or i1 %16, %17
  br i1 %or.cond5, label %18, label %19

18:                                               ; preds = %14, %10
  store i32 1, ptr %4, align 4, !tbaa !9
  br label %.loopexit

19:                                               ; preds = %14
  %.not = icmp eq i32 %2, 0
  br i1 %.not, label %.loopexit, label %.lr.ph.preheader

.lr.ph.preheader:                                 ; preds = %19
  %20 = lshr exact i32 %2, 3
  br label %.lr.ph

.lr.ph:                                           ; preds = %.lr.ph.preheader, %.lr.ph
  %.03039 = phi i32 [ %25, %.lr.ph ], [ %20, %.lr.ph.preheader ]
  %.03138 = phi ptr [ %24, %.lr.ph ], [ %3, %.lr.ph.preheader ]
  %.03237 = phi ptr [ %21, %.lr.ph ], [ %1, %.lr.ph.preheader ]
  %21 = getelementptr inbounds nuw i8, ptr %.03237, i64 8
  %22 = load i64, ptr %.03237, align 8, !tbaa !44
  %23 = tail call i64 @llvm.bswap.i64(i64 %22)
  %24 = getelementptr inbounds nuw i8, ptr %.03138, i64 8
  store i64 %23, ptr %.03138, align 8, !tbaa !44
  %25 = add nsw i32 %.03039, -1
  %26 = icmp samesign ugt i32 %.03039, 1
  br i1 %26, label %.lr.ph, label %.loopexit, !llvm.loop !46

.loopexit:                                        ; preds = %.lr.ph, %19, %5, %7, %18
  %.0 = phi i32 [ 0, %18 ], [ 0, %7 ], [ 0, %5 ], [ 0, %19 ], [ %2, %.lr.ph ]
  ret i32 %.0
}